EXPORTS
	?ImplementationGroupProxy@@YAPBUTImplementationProxy@@AAH@Z @ 1 NONAME ; struct TImplementationProxy const * ImplementationGroupProxy(int &)
	?DoWriteItemL@CNSmlContactsDataStore@@MAEXABVTDesC8@@@Z @ 2 NONAME ; void CNSmlContactsDataStore::DoWriteItemL(class TDesC8 const &)
	?DoSupportedServerFiltersL@CNSmlContactsDataProvider@@MAEABV?$RPointerArray@VCSyncMLFilter@@@@XZ @ 3 NONAME ; class RPointerArray<class CSyncMLFilter> const & CNSmlContactsDataProvider::DoSupportedServerFiltersL(void)
	?DoModifiedItems@CNSmlContactsDataStore@@MBEABVMSmlDataItemUidSet@@XZ @ 4 NONAME ; class MSmlDataItemUidSet const & CNSmlContactsDataStore::DoModifiedItems(void) const
	?DoReadItemL@CNSmlContactsDataStore@@MAEXAAVTDes8@@@Z @ 5 NONAME ; void CNSmlContactsDataStore::DoReadItemL(class TDes8 &)
	?DoDeletedItems@CNSmlContactsDataStore@@MBEABVMSmlDataItemUidSet@@XZ @ 6 NONAME ; class MSmlDataItemUidSet const & CNSmlContactsDataStore::DoDeletedItems(void) const
	?ConstructL@CNSmlContactsDataStore@@IAEXXZ @ 7 NONAME ; void CNSmlContactsDataStore::ConstructL(void)
	?NewL@CNSmlContactsDataStore@@SAPAV1@XZ @ 8 NONAME ; class CNSmlContactsDataStore * CNSmlContactsDataStore::NewL(void)
	?DoGenerateFieldFilterQueryL@CNSmlContactsDataProvider@@MAEXABV?$RPointerArray@VCSyncMLFilter@@@@AAVTDes16@@AAV?$RPointerArray@VCSmlDataProperty@@@@AAVTDesC16@@@Z @ 9 NONAME ; void CNSmlContactsDataProvider::DoGenerateFieldFilterQueryL(class RPointerArray<class CSyncMLFilter> const &, class TDes16 &, class RPointerArray<class CSmlDataProperty> &, class TDesC16 &)
	?ContactRemovedFromView@CNSmlContactsDataStore@@MAEXAAVMVPbkContactViewBase@@HABVMVPbkContactLink@@@Z @ 10 NONAME ; void CNSmlContactsDataStore::ContactRemovedFromView(class MVPbkContactViewBase &, int, class MVPbkContactLink const &)
	??0CNSmlContactsDataStore@@IAE@XZ @ 11 NONAME ; CNSmlContactsDataStore::CNSmlContactsDataStore(void)
	?OperationComplete@CNSmlContactsDataStore@@MAEXAAVMVPbkContactOperationBase@@@Z @ 12 NONAME ; void CNSmlContactsDataStore::OperationComplete(class MVPbkContactOperationBase &)
	?ExecuteDeleteL@CNSmlContactsDataStore@@MAEXXZ @ 13 NONAME ; void CNSmlContactsDataStore::ExecuteDeleteL(void)
	?DoResetChangeInfoL@CNSmlContactsDataStore@@MAEXAAVTRequestStatus@@@Z @ 14 NONAME ; void CNSmlContactsDataStore::DoResetChangeInfoL(class TRequestStatus &)
	?DoBeginBatchL@CNSmlContactsDataStore@@MAEXXZ @ 15 NONAME ; void CNSmlContactsDataStore::DoBeginBatchL(void)
	?DoSoftDeletedItems@CNSmlContactsDataStore@@MBEABVMSmlDataItemUidSet@@XZ @ 16 NONAME ; class MSmlDataItemUidSet const & CNSmlContactsDataStore::DoSoftDeletedItems(void) const
	?StoreReady@CNSmlContactsDataStore@@MAEXAAVMVPbkContactStore@@@Z @ 17 NONAME ; void CNSmlContactsDataStore::StoreReady(class MVPbkContactStore &)
	??1CNSmlContactsDataStore@@UAE@XZ @ 18 NONAME ; CNSmlContactsDataStore::~CNSmlContactsDataStore(void)
	?GetStoreFormatResourceFileL@CNSmlContactsDataProvider@@MBEABVTDesC16@@XZ @ 19 NONAME ; class TDesC16 const & CNSmlContactsDataProvider::GetStoreFormatResourceFileL(void) const
	?SetOwnStoreFormatL@CNSmlContactsDataStore@@IAEXXZ @ 20 NONAME ; void CNSmlContactsDataStore::SetOwnStoreFormatL(void)
	?AddBufferListL@CNSmlContactsDataStore@@IAEPAVCBufBase@@AAHHH@Z @ 21 NONAME ; class CBufBase * CNSmlContactsDataStore::AddBufferListL(int &, int, int)
	?DoListStoresLC@CNSmlContactsDataStore@@QAEPAVCDesC16Array@@XZ @ 22 NONAME ; class CDesC16Array * CNSmlContactsDataStore::DoListStoresLC(void)
	?StripPropertyL@CNSmlContactsDataStore@@IBEXAAPAVCBufBase@@ABVTDesC8@@@Z @ 23 NONAME ; void CNSmlContactsDataStore::StripPropertyL(class CBufBase * &, class TDesC8 const &) const
	?ContactAddedToView@CNSmlContactsDataStore@@MAEXAAVMVPbkContactViewBase@@HABVMVPbkContactLink@@@Z @ 24 NONAME ; void CNSmlContactsDataStore::ContactAddedToView(class MVPbkContactViewBase &, int, class MVPbkContactLink const &)
	?ContactsSaved@CNSmlContactsDataStore@@MAEXAAVMVPbkContactOperationBase@@PAVMVPbkContactLinkArray@@@Z @ 25 NONAME ; void CNSmlContactsDataStore::ContactsSaved(class MVPbkContactOperationBase &, class MVPbkContactLinkArray *)
	?ExecuteUpdateL@CNSmlContactsDataStore@@MAEXXZ @ 26 NONAME ; void CNSmlContactsDataStore::ExecuteUpdateL(void)
	??0CNSmlContactsDataProvider@@IAE@XZ @ 27 NONAME ; CNSmlContactsDataProvider::CNSmlContactsDataProvider(void)
	?ConstructL@CNSmlContactsDataProvider@@IAEXXZ @ 28 NONAME ; void CNSmlContactsDataProvider::ConstructL(void)
	?LdoAddItemsL@CNSmlContactsDataStore@@MAEXAAPAVCBufBase@@H@Z @ 29 NONAME ; void CNSmlContactsDataStore::LdoAddItemsL(class CBufBase * &, int)
	?StepFailed@CNSmlContactsDataStore@@MAEHAAVMVPbkContactOperationBase@@HH@Z @ 30 NONAME ; int CNSmlContactsDataStore::StepFailed(class MVPbkContactOperationBase &, int, int)
	?HandleStoreEventL@CNSmlContactsDataStore@@MAEXAAVMVPbkContactStore@@VTVPbkContactStoreEvent@@@Z @ 31 NONAME ; void CNSmlContactsDataStore::HandleStoreEventL(class MVPbkContactStore &, class TVPbkContactStoreEvent)
	?DoCommitChangeInfoL@CNSmlContactsDataStore@@MAEXAAVTRequestStatus@@ABVMSmlDataItemUidSet@@@Z @ 32 NONAME ; void CNSmlContactsDataStore::DoCommitChangeInfoL(class TRequestStatus &, class MSmlDataItemUidSet const &)
	?DoOnFrameworkEvent@CNSmlContactsDataProvider@@MAEXW4TSmlFrameworkEvent@@HH@Z @ 33 NONAME ; void CNSmlContactsDataProvider::DoOnFrameworkEvent(enum TSmlFrameworkEvent, int, int)
	?DoDeleteAllItemsL@CNSmlContactsDataStore@@MAEXAAVTRequestStatus@@@Z @ 34 NONAME ; void CNSmlContactsDataStore::DoDeleteAllItemsL(class TRequestStatus &)
	??1CNSmlContactsDataProvider@@UAE@XZ @ 35 NONAME ; CNSmlContactsDataProvider::~CNSmlContactsDataProvider(void)
	?IsConfidentialL@CNSmlContactsDataStore@@IAEHAAVMVPbkStoreContact@@@Z @ 36 NONAME ; int CNSmlContactsDataStore::IsConfidentialL(class MVPbkStoreContact &)
	?DefaultStoreNameL@CNSmlContactsDataStore@@QBEABVTDesC16@@XZ @ 37 NONAME ; class TDesC16 const & CNSmlContactsDataStore::DefaultStoreNameL(void) const
	?DoSetRemoteStoreFormatL@CNSmlContactsDataStore@@MAEXABVCSmlDataStoreFormat@@@Z @ 38 NONAME ; void CNSmlContactsDataStore::DoSetRemoteStoreFormatL(class CSmlDataStoreFormat const &)
	?DriveBelowCriticalLevelL@CNSmlContactsDataStore@@IAEHH@Z @ 39 NONAME ; int CNSmlContactsDataStore::DriveBelowCriticalLevelL(int)
	?CreateViewL@CNSmlContactsDataStore@@IAEXXZ @ 40 NONAME ; void CNSmlContactsDataStore::CreateViewL(void)
	?GetDataMod@CNSmlContactsDataStore@@MAEAAVCNSmlDataModBase@@XZ @ 41 NONAME ; class CNSmlDataModBase & CNSmlContactsDataStore::GetDataMod(void)
	?ResetBuffer@CNSmlContactsDataStore@@IAEXXZ @ 42 NONAME ; void CNSmlContactsDataStore::ResetBuffer(void)
	?DoSoftDeleteItemL@CNSmlContactsDataStore@@MAEXHAAVTRequestStatus@@@Z @ 43 NONAME ; void CNSmlContactsDataStore::DoSoftDeleteItemL(int, class TRequestStatus &)
	?DoMoveItemL@CNSmlContactsDataStore@@MAEXHHAAVTRequestStatus@@@Z @ 44 NONAME ; void CNSmlContactsDataStore::DoMoveItemL(int, int, class TRequestStatus &)
	?DoDefaultStoreL@CNSmlContactsDataProvider@@MAEABVTDesC16@@XZ @ 45 NONAME ; class TDesC16 const & CNSmlContactsDataProvider::DoDefaultStoreL(void)
	?ExecuteMoveL@CNSmlContactsDataStore@@MAEXXZ @ 46 NONAME ; void CNSmlContactsDataStore::ExecuteMoveL(void)
	?SingleContactOperationCompleteL@CNSmlContactsDataStore@@IAEXPAVMVPbkStoreContact@@@Z @ 47 NONAME ; void CNSmlContactsDataStore::SingleContactOperationCompleteL(class MVPbkStoreContact *)
	?DoStoreName@CNSmlContactsDataStore@@MBEABVTDesC16@@XZ @ 48 NONAME ; class TDesC16 const & CNSmlContactsDataStore::DoStoreName(void) const
	?DoDeleteAllContactsL@CNSmlContactsDataStore@@MAEXXZ @ 49 NONAME ; void CNSmlContactsDataStore::DoDeleteAllContactsL(void)
	?DoCreateItemL@CNSmlContactsDataStore@@MAEXAAHHHABVTDesC8@@1AAVTRequestStatus@@@Z @ 50 NONAME ; void CNSmlContactsDataStore::DoCreateItemL(int &, int, int, class TDesC8 const &, class TDesC8 const &, class TRequestStatus &)
	??1CNSmlContactsBufferItem@CNSmlContactsDataStore@@UAE@XZ @ 51 NONAME ; CNSmlContactsDataStore::CNSmlContactsBufferItem::~CNSmlContactsBufferItem(void)
	?DoListStoresLC@CNSmlContactsDataProvider@@MAEPAVCDesC16Array@@XZ @ 52 NONAME ; class CDesC16Array * CNSmlContactsDataProvider::DoListStoresLC(void)
	?DoSupportsOperation@CNSmlContactsDataProvider@@MBEHVTUid@@@Z @ 53 NONAME ; int CNSmlContactsDataProvider::DoSupportsOperation(class TUid) const
	?ContactViewError@CNSmlContactsDataStore@@MAEXAAVMVPbkContactViewBase@@HH@Z @ 54 NONAME ; void CNSmlContactsDataStore::ContactViewError(class MVPbkContactViewBase &, int, int)
	?ContactViewReady@CNSmlContactsDataStore@@MAEXAAVMVPbkContactViewBase@@@Z @ 55 NONAME ; void CNSmlContactsDataStore::ContactViewReady(class MVPbkContactViewBase &)
	?DoCommitChangeInfoL@CNSmlContactsDataStore@@MAEXAAVTRequestStatus@@@Z @ 56 NONAME ; void CNSmlContactsDataStore::DoCommitChangeInfoL(class TRequestStatus &)
	?ConstructL@CNSmlContactsDataStore@@IAEXABVTDesC16@@0@Z @ 57 NONAME ; void CNSmlContactsDataStore::ConstructL(class TDesC16 const &, class TDesC16 const &)
	?NewL@CNSmlContactsDataProvider@@SAPAV1@XZ @ 58 NONAME ; class CNSmlContactsDataProvider * CNSmlContactsDataProvider::NewL(void)
	?ExecuteBufferL@CNSmlContactsDataStore@@MAEXXZ @ 59 NONAME ; void CNSmlContactsDataStore::ExecuteBufferL(void)
	?DoGenerateRecordFilterQueryLC@CNSmlContactsDataProvider@@MAEPAVHBufC16@@ABV?$RPointerArray@VCSyncMLFilter@@@@W4TSyncMLFilterMatchType@@AAVTDes16@@AAW4TSyncMLFilterType@@AAVTDesC16@@@Z @ 60 NONAME ; class HBufC16 * CNSmlContactsDataProvider::DoGenerateRecordFilterQueryLC(class RPointerArray<class CSyncMLFilter> const &, enum TSyncMLFilterMatchType, class TDes16 &, enum TSyncMLFilterType &, class TDesC16 &)
	?ExecuteAddL@CNSmlContactsDataStore@@MAEHXZ @ 61 NONAME ; int CNSmlContactsDataStore::ExecuteAddL(void)
	?VPbkSingleContactOperationComplete@CNSmlContactsDataStore@@MAEXAAVMVPbkContactOperationBase@@PAVMVPbkStoreContact@@@Z @ 62 NONAME ; void CNSmlContactsDataStore::VPbkSingleContactOperationComplete(class MVPbkContactOperationBase &, class MVPbkStoreContact *)
	?LdoAddItemL@CNSmlContactsDataStore@@MAEXABVTDesC8@@H@Z @ 63 NONAME ; void CNSmlContactsDataStore::LdoAddItemL(class TDesC8 const &, int)
	?DoCheckSupportedServerFiltersL@CNSmlContactsDataProvider@@MAEXABVCSmlDataStoreFormat@@AAV?$RPointerArray@VCSyncMLFilter@@@@AAW4TSyncMLFilterChangeInfo@@@Z @ 64 NONAME ; void CNSmlContactsDataProvider::DoCheckSupportedServerFiltersL(class CSmlDataStoreFormat const &, class RPointerArray<class CSyncMLFilter> &, enum TSyncMLFilterChangeInfo &)
	?GetStoreFormatResourceFileL@CNSmlContactsDataStore@@MAEABVTDesC16@@XZ @ 65 NONAME ; class TDesC16 const & CNSmlContactsDataStore::GetStoreFormatResourceFileL(void)
	?DoRevertTransaction@CNSmlContactsDataStore@@MAEXAAVTRequestStatus@@@Z @ 66 NONAME ; void CNSmlContactsDataStore::DoRevertTransaction(class TRequestStatus &)
	?DoCommitItemL@CNSmlContactsDataStore@@MAEXAAVTRequestStatus@@@Z @ 67 NONAME ; void CNSmlContactsDataStore::DoCommitItemL(class TRequestStatus &)
	?LdoUpdateItemL@CNSmlContactsDataStore@@MAEXXZ @ 68 NONAME ; void CNSmlContactsDataStore::LdoUpdateItemL(void)
	?DoDeleteItemL@CNSmlContactsDataStore@@MAEXHAAVTRequestStatus@@@Z @ 69 NONAME ; void CNSmlContactsDataStore::DoDeleteItemL(int, class TRequestStatus &)
	?CreateDataStoreLC@CNSmlContactsDataProvider@@MBEPAVCNSmlContactsDataStore@@XZ @ 70 NONAME ; class CNSmlContactsDataStore * CNSmlContactsDataProvider::CreateDataStoreLC(void) const
	?DoHasSyncHistory@CNSmlContactsDataStore@@MBEHXZ @ 71 NONAME ; int CNSmlContactsDataStore::DoHasSyncHistory(void) const
	?DoCommitBatchL@CNSmlContactsDataStore@@MAEXAAV?$RArray@H@@AAVTRequestStatus@@@Z @ 72 NONAME ; void CNSmlContactsDataStore::DoCommitBatchL(class RArray<int> &, class TRequestStatus &)
	?DoMaxObjectSize@CNSmlContactsDataStore@@MBEHXZ @ 73 NONAME ; int CNSmlContactsDataStore::DoMaxObjectSize(void) const
	?DoReplaceItemL@CNSmlContactsDataStore@@MAEXHHHHAAVTRequestStatus@@@Z @ 74 NONAME ; void CNSmlContactsDataStore::DoReplaceItemL(int, int, int, int, class TRequestStatus &)
	?DoCloseItem@CNSmlContactsDataStore@@MAEXXZ @ 75 NONAME ; void CNSmlContactsDataStore::DoCloseItem(void)
	?ContactViewUnavailable@CNSmlContactsDataStore@@MAEXAAVMVPbkContactViewBase@@@Z @ 76 NONAME ; void CNSmlContactsDataStore::ContactViewUnavailable(class MVPbkContactViewBase &)
	?DoCommitTransactionL@CNSmlContactsDataStore@@MAEXAAVTRequestStatus@@@Z @ 77 NONAME ; void CNSmlContactsDataStore::DoCommitTransactionL(class TRequestStatus &)
	?DoStoreFormatL@CNSmlContactsDataProvider@@MAEABVCSmlDataStoreFormat@@XZ @ 78 NONAME ; class CSmlDataStoreFormat const & CNSmlContactsDataProvider::DoStoreFormatL(void)
	?DoCancelBatch@CNSmlContactsDataStore@@MAEXXZ @ 79 NONAME ; void CNSmlContactsDataStore::DoCancelBatch(void)
	?CreateModsFetcherL@CNSmlContactsDataStore@@MAEPAVMContactsModsFetcher@@XZ @ 80 NONAME ; class MContactsModsFetcher * CNSmlContactsDataStore::CreateModsFetcherL(void)
	?NewLC@CNSmlContactsDataProvider@@KAPAV1@XZ @ 81 NONAME ; class CNSmlContactsDataProvider * CNSmlContactsDataProvider::NewLC(void)
	?StoreUnavailable@CNSmlContactsDataStore@@MAEXAAVMVPbkContactStore@@H@Z @ 82 NONAME ; void CNSmlContactsDataStore::StoreUnavailable(class MVPbkContactStore &, int)
	?LdoFetchItemL@CNSmlContactsDataStore@@MAEXAAHAAVCBufBase@@@Z @ 83 NONAME ; void CNSmlContactsDataStore::LdoFetchItemL(int &, class CBufBase &)
	?DoCheckServerFiltersL@CNSmlContactsDataProvider@@MAEXAAV?$RPointerArray@VCSyncMLFilter@@@@AAW4TSyncMLFilterChangeInfo@@@Z @ 84 NONAME ; void CNSmlContactsDataProvider::DoCheckServerFiltersL(class RPointerArray<class CSyncMLFilter> &, enum TSyncMLFilterChangeInfo &)
	?DoCancelRequest@CNSmlContactsDataStore@@MAEXXZ @ 85 NONAME ; void CNSmlContactsDataStore::DoCancelRequest(void)
	?DoOpenItemL@CNSmlContactsDataStore@@MAEXHAAH00AAVTDes8@@1AAVTRequestStatus@@@Z @ 86 NONAME ; void CNSmlContactsDataStore::DoOpenItemL(int, int &, int &, int &, class TDes8 &, class TDes8 &, class TRequestStatus &)
	?DoBeginTransactionL@CNSmlContactsDataStore@@MAEXXZ @ 87 NONAME ; void CNSmlContactsDataStore::DoBeginTransactionL(void)
	?OperationCompleteL@CNSmlContactsDataStore@@IAEXXZ @ 88 NONAME ; void CNSmlContactsDataStore::OperationCompleteL(void)
	?StepComplete@CNSmlContactsDataStore@@MAEXAAVMVPbkContactOperationBase@@H@Z @ 89 NONAME ; void CNSmlContactsDataStore::StepComplete(class MVPbkContactOperationBase &, int)
	?DoAddedItems@CNSmlContactsDataStore@@MBEABVMSmlDataItemUidSet@@XZ @ 90 NONAME ; class MSmlDataItemUidSet const & CNSmlContactsDataStore::DoAddedItems(void) const
	?DoSetRemoteMaxObjectSize@CNSmlContactsDataStore@@MAEXH@Z @ 91 NONAME ; void CNSmlContactsDataStore::DoSetRemoteMaxObjectSize(int)
	?StripPropertyL@CNSmlContactsDataStore@@IBEXAAPAVHBufC8@@ABVTDesC8@@@Z @ 92 NONAME ; void CNSmlContactsDataStore::StripPropertyL(class HBufC8 * &, class TDesC8 const &) const
	?DoOpenL@CNSmlContactsDataStore@@MAEXABVTDesC16@@AAVMSmlSyncRelationship@@AAVTRequestStatus@@@Z @ 93 NONAME ; void CNSmlContactsDataStore::DoOpenL(class TDesC16 const &, class MSmlSyncRelationship &, class TRequestStatus &)
	?VPbkSingleContactOperationFailed@CNSmlContactsDataStore@@MAEXAAVMVPbkContactOperationBase@@H@Z @ 94 NONAME ; void CNSmlContactsDataStore::VPbkSingleContactOperationFailed(class MVPbkContactOperationBase &, int)
	?ContactsSavingFailed@CNSmlContactsDataStore@@MAEXAAVMVPbkContactOperationBase@@H@Z @ 95 NONAME ; void CNSmlContactsDataStore::ContactsSavingFailed(class MVPbkContactOperationBase &, int)
	?DoMovedItems@CNSmlContactsDataStore@@MBEABVMSmlDataItemUidSet@@XZ @ 96 NONAME ; class MSmlDataItemUidSet const & CNSmlContactsDataStore::DoMovedItems(void) const
	?DoNewStoreInstanceLC@CNSmlContactsDataProvider@@MAEPAVCSmlDataStore@@XZ @ 97 NONAME ; class CSmlDataStore * CNSmlContactsDataProvider::DoNewStoreInstanceLC(void)

