EXPORTS
	_Z24ImplementationGroupProxyRi @ 1 NONAME
	_ZTI22CNSmlContactsDataStore @ 2 NONAME ; #<TI>#
	_ZTI24CNSmlContactsModsFetcher @ 3 NONAME ; #<TI>#
	_ZTI25CNSmlContactsDataProvider @ 4 NONAME ; #<TI>#
	_ZTIN22CNSmlContactsDataStore23CNSmlContactsBufferItemE @ 5 NONAME ; #<TI>#
	_ZTV22CNSmlContactsDataStore @ 6 NONAME ; #<VT>#
	_ZTV24CNSmlContactsModsFetcher @ 7 NONAME ; #<VT>#
	_ZTV25CNSmlContactsDataProvider @ 8 NONAME ; #<VT>#
	_ZTVN22CNSmlContactsDataStore23CNSmlContactsBufferItemE @ 9 NONAME ; #<VT>#
	_ZN22CNSmlContactsDataStore10ConstructLERK7TDesC16S2_ @ 10 NONAME
	_ZN22CNSmlContactsDataStore10ConstructLEv @ 11 NONAME
	_ZN22CNSmlContactsDataStore10GetDataModEv @ 12 NONAME
	_ZN22CNSmlContactsDataStore10StepFailedER25MVPbkContactOperationBaseii @ 13 NONAME
	_ZN22CNSmlContactsDataStore10StoreReadyER17MVPbkContactStore @ 14 NONAME
	_ZN22CNSmlContactsDataStore11CreateViewLEv @ 15 NONAME
	_ZN22CNSmlContactsDataStore11DoCloseItemEv @ 16 NONAME
	_ZN22CNSmlContactsDataStore11DoMoveItemLEiiR14TRequestStatus @ 17 NONAME
	_ZN22CNSmlContactsDataStore11DoOpenItemLEiRiS0_S0_R5TDes8S2_R14TRequestStatus @ 18 NONAME
	_ZN22CNSmlContactsDataStore11DoReadItemLER5TDes8 @ 19 NONAME
	_ZN22CNSmlContactsDataStore11ExecuteAddLEv @ 20 NONAME
	_ZN22CNSmlContactsDataStore11LdoAddItemLERK6TDesC8i @ 21 NONAME
	_ZN22CNSmlContactsDataStore11ResetBufferEv @ 22 NONAME
	_ZN22CNSmlContactsDataStore12DoWriteItemLERK6TDesC8 @ 23 NONAME
	_ZN22CNSmlContactsDataStore12ExecuteMoveLEv @ 24 NONAME
	_ZN22CNSmlContactsDataStore12LdoAddItemsLERP8CBufBasei @ 25 NONAME
	_ZN22CNSmlContactsDataStore12StepCompleteER25MVPbkContactOperationBasei @ 26 NONAME
	_ZN22CNSmlContactsDataStore13ContactsSavedER25MVPbkContactOperationBaseP21MVPbkContactLinkArray @ 27 NONAME
	_ZN22CNSmlContactsDataStore13DoBeginBatchLEv @ 28 NONAME
	_ZN22CNSmlContactsDataStore13DoCancelBatchEv @ 29 NONAME
	_ZN22CNSmlContactsDataStore13DoCommitItemLER14TRequestStatus @ 30 NONAME
	_ZN22CNSmlContactsDataStore13DoCreateItemLERiiiRK6TDesC8S3_R14TRequestStatus @ 31 NONAME
	_ZN22CNSmlContactsDataStore13DoDeleteItemLEiR14TRequestStatus @ 32 NONAME
	_ZN22CNSmlContactsDataStore13LdoFetchItemLERiR8CBufBase @ 33 NONAME
	_ZN22CNSmlContactsDataStore14AddBufferListLERiii @ 34 NONAME
	_ZN22CNSmlContactsDataStore14DoCommitBatchLER6RArrayIiER14TRequestStatus @ 35 NONAME
	_ZN22CNSmlContactsDataStore14DoListStoresLCEv @ 36 NONAME
	_ZN22CNSmlContactsDataStore14DoReplaceItemLEiiiiR14TRequestStatus @ 37 NONAME
	_ZN22CNSmlContactsDataStore14ExecuteBufferLEv @ 38 NONAME
	_ZN22CNSmlContactsDataStore14ExecuteDeleteLEv @ 39 NONAME
	_ZN22CNSmlContactsDataStore14ExecuteUpdateLEv @ 40 NONAME
	_ZN22CNSmlContactsDataStore14LdoUpdateItemLEv @ 41 NONAME
	_ZN22CNSmlContactsDataStore15DoCancelRequestEv @ 42 NONAME
	_ZN22CNSmlContactsDataStore15IsConfidentialLER17MVPbkStoreContact @ 43 NONAME
	_ZN22CNSmlContactsDataStore16ContactViewErrorER20MVPbkContactViewBaseii @ 44 NONAME
	_ZN22CNSmlContactsDataStore16ContactViewReadyER20MVPbkContactViewBase @ 45 NONAME
	_ZN22CNSmlContactsDataStore16StoreUnavailableER17MVPbkContactStorei @ 46 NONAME
	_ZN22CNSmlContactsDataStore17DoDeleteAllItemsLER14TRequestStatus @ 47 NONAME
	_ZN22CNSmlContactsDataStore17DoSoftDeleteItemLEiR14TRequestStatus @ 48 NONAME
	_ZN22CNSmlContactsDataStore17HandleStoreEventLER17MVPbkContactStore22TVPbkContactStoreEvent @ 49 NONAME
	_ZN22CNSmlContactsDataStore17OperationCompleteER25MVPbkContactOperationBase @ 50 NONAME
	_ZN22CNSmlContactsDataStore18ContactAddedToViewER20MVPbkContactViewBaseiRK16MVPbkContactLink @ 51 NONAME
	_ZN22CNSmlContactsDataStore18CreateModsFetcherLEv @ 52 NONAME
	_ZN22CNSmlContactsDataStore18DoResetChangeInfoLER14TRequestStatus @ 53 NONAME
	_ZN22CNSmlContactsDataStore18OperationCompleteLEv @ 54 NONAME
	_ZN22CNSmlContactsDataStore18SetOwnStoreFormatLEv @ 55 NONAME
	_ZN22CNSmlContactsDataStore19DoBeginTransactionLEv @ 56 NONAME
	_ZN22CNSmlContactsDataStore19DoCommitChangeInfoLER14TRequestStatus @ 57 NONAME
	_ZN22CNSmlContactsDataStore19DoCommitChangeInfoLER14TRequestStatusRK18MSmlDataItemUidSet @ 58 NONAME
	_ZN22CNSmlContactsDataStore19DoRevertTransactionER14TRequestStatus @ 59 NONAME
	_ZN22CNSmlContactsDataStore20ContactsSavingFailedER25MVPbkContactOperationBasei @ 60 NONAME
	_ZN22CNSmlContactsDataStore20DoCommitTransactionLER14TRequestStatus @ 61 NONAME
	_ZN22CNSmlContactsDataStore20DoDeleteAllContactsLEv @ 62 NONAME
	_ZN22CNSmlContactsDataStore22ContactRemovedFromViewER20MVPbkContactViewBaseiRK16MVPbkContactLink @ 63 NONAME
	_ZN22CNSmlContactsDataStore22ContactViewUnavailableER20MVPbkContactViewBase @ 64 NONAME
	_ZN22CNSmlContactsDataStore23CNSmlContactsBufferItemD0Ev @ 65 NONAME
	_ZN22CNSmlContactsDataStore23CNSmlContactsBufferItemD1Ev @ 66 NONAME
	_ZN22CNSmlContactsDataStore23CNSmlContactsBufferItemD2Ev @ 67 NONAME
	_ZN22CNSmlContactsDataStore23DoSetRemoteStoreFormatLERK19CSmlDataStoreFormat @ 68 NONAME
	_ZN22CNSmlContactsDataStore24DoSetRemoteMaxObjectSizeEi @ 69 NONAME
	_ZN22CNSmlContactsDataStore24DriveBelowCriticalLevelLEi @ 70 NONAME
	_ZN22CNSmlContactsDataStore27GetStoreFormatResourceFileLEv @ 71 NONAME
	_ZN22CNSmlContactsDataStore31SingleContactOperationCompleteLEP17MVPbkStoreContact @ 72 NONAME
	_ZN22CNSmlContactsDataStore32VPbkSingleContactOperationFailedER25MVPbkContactOperationBasei @ 73 NONAME
	_ZN22CNSmlContactsDataStore34VPbkSingleContactOperationCompleteER25MVPbkContactOperationBaseP17MVPbkStoreContact @ 74 NONAME
	_ZN22CNSmlContactsDataStore4NewLEv @ 75 NONAME
	_ZN22CNSmlContactsDataStore7DoOpenLERK7TDesC16R20MSmlSyncRelationshipR14TRequestStatus @ 76 NONAME
	_ZN22CNSmlContactsDataStoreC1Ev @ 77 NONAME
	_ZN22CNSmlContactsDataStoreC2Ev @ 78 NONAME
	_ZN22CNSmlContactsDataStoreD0Ev @ 79 NONAME
	_ZN22CNSmlContactsDataStoreD1Ev @ 80 NONAME
	_ZN22CNSmlContactsDataStoreD2Ev @ 81 NONAME
	_ZN25CNSmlContactsDataProvider10ConstructLEv @ 82 NONAME
	_ZN25CNSmlContactsDataProvider14DoListStoresLCEv @ 83 NONAME
	_ZN25CNSmlContactsDataProvider14DoStoreFormatLEv @ 84 NONAME
	_ZN25CNSmlContactsDataProvider15DoDefaultStoreLEv @ 85 NONAME
	_ZN25CNSmlContactsDataProvider18DoOnFrameworkEventE18TSmlFrameworkEventii @ 86 NONAME
	_ZN25CNSmlContactsDataProvider20DoNewStoreInstanceLCEv @ 87 NONAME
	_ZN25CNSmlContactsDataProvider21DoCheckServerFiltersLER13RPointerArrayI13CSyncMLFilterER23TSyncMLFilterChangeInfo @ 88 NONAME
	_ZN25CNSmlContactsDataProvider25DoSupportedServerFiltersLEv @ 89 NONAME
	_ZN25CNSmlContactsDataProvider27DoGenerateFieldFilterQueryLERK13RPointerArrayI13CSyncMLFilterER6TDes16RS0_I16CSmlDataPropertyER7TDesC16 @ 90 NONAME
	_ZN25CNSmlContactsDataProvider29DoGenerateRecordFilterQueryLCERK13RPointerArrayI13CSyncMLFilterE22TSyncMLFilterMatchTypeR6TDes16R17TSyncMLFilterTypeR7TDesC16 @ 91 NONAME
	_ZN25CNSmlContactsDataProvider30DoCheckSupportedServerFiltersLERK19CSmlDataStoreFormatR13RPointerArrayI13CSyncMLFilterER23TSyncMLFilterChangeInfo @ 92 NONAME
	_ZN25CNSmlContactsDataProvider4NewLEv @ 93 NONAME
	_ZN25CNSmlContactsDataProvider5NewLCEv @ 94 NONAME
	_ZN25CNSmlContactsDataProviderC1Ev @ 95 NONAME
	_ZN25CNSmlContactsDataProviderC2Ev @ 96 NONAME
	_ZN25CNSmlContactsDataProviderD0Ev @ 97 NONAME
	_ZN25CNSmlContactsDataProviderD1Ev @ 98 NONAME
	_ZN25CNSmlContactsDataProviderD2Ev @ 99 NONAME
	_ZNK22CNSmlContactsDataStore11DoStoreNameEv @ 100 NONAME
	_ZNK22CNSmlContactsDataStore12DoAddedItemsEv @ 101 NONAME
	_ZNK22CNSmlContactsDataStore12DoMovedItemsEv @ 102 NONAME
	_ZNK22CNSmlContactsDataStore14DoDeletedItemsEv @ 103 NONAME
	_ZNK22CNSmlContactsDataStore14StripPropertyLERP6HBufC8RK6TDesC8 @ 104 NONAME
	_ZNK22CNSmlContactsDataStore14StripPropertyLERP8CBufBaseRK6TDesC8 @ 105 NONAME
	_ZNK22CNSmlContactsDataStore15DoMaxObjectSizeEv @ 106 NONAME
	_ZNK22CNSmlContactsDataStore15DoModifiedItemsEv @ 107 NONAME
	_ZNK22CNSmlContactsDataStore16DoHasSyncHistoryEv @ 108 NONAME
	_ZNK22CNSmlContactsDataStore17DefaultStoreNameLEv @ 109 NONAME
	_ZNK22CNSmlContactsDataStore18DoSoftDeletedItemsEv @ 110 NONAME
	_ZNK25CNSmlContactsDataProvider17CreateDataStoreLCEv @ 111 NONAME
	_ZNK25CNSmlContactsDataProvider19DoSupportsOperationE4TUid @ 112 NONAME
	_ZNK25CNSmlContactsDataProvider27GetStoreFormatResourceFileLEv @ 113 NONAME
	_ZThn12_N22CNSmlContactsDataStore13ContactsSavedER25MVPbkContactOperationBaseP21MVPbkContactLinkArray @ 114 NONAME
	_ZThn12_N22CNSmlContactsDataStore20ContactsSavingFailedER25MVPbkContactOperationBasei @ 115 NONAME
	_ZThn12_N22CNSmlContactsDataStoreD0Ev @ 116 NONAME
	_ZThn12_N22CNSmlContactsDataStoreD1Ev @ 117 NONAME
	_ZThn16_N22CNSmlContactsDataStore10StepFailedER25MVPbkContactOperationBaseii @ 118 NONAME
	_ZThn16_N22CNSmlContactsDataStore12StepCompleteER25MVPbkContactOperationBasei @ 119 NONAME
	_ZThn16_N22CNSmlContactsDataStore17OperationCompleteER25MVPbkContactOperationBase @ 120 NONAME
	_ZThn16_N22CNSmlContactsDataStoreD0Ev @ 121 NONAME
	_ZThn16_N22CNSmlContactsDataStoreD1Ev @ 122 NONAME
	_ZThn20_N22CNSmlContactsDataStore16ContactViewErrorER20MVPbkContactViewBaseii @ 123 NONAME
	_ZThn20_N22CNSmlContactsDataStore16ContactViewReadyER20MVPbkContactViewBase @ 124 NONAME
	_ZThn20_N22CNSmlContactsDataStore18ContactAddedToViewER20MVPbkContactViewBaseiRK16MVPbkContactLink @ 125 NONAME
	_ZThn20_N22CNSmlContactsDataStore22ContactRemovedFromViewER20MVPbkContactViewBaseiRK16MVPbkContactLink @ 126 NONAME
	_ZThn20_N22CNSmlContactsDataStore22ContactViewUnavailableER20MVPbkContactViewBase @ 127 NONAME
	_ZThn20_N22CNSmlContactsDataStoreD0Ev @ 128 NONAME
	_ZThn20_N22CNSmlContactsDataStoreD1Ev @ 129 NONAME
	_ZThn24_N22CNSmlContactsDataStoreD0Ev @ 130 NONAME
	_ZThn24_N22CNSmlContactsDataStoreD1Ev @ 131 NONAME
	_ZThn4_N22CNSmlContactsDataStore10StoreReadyER17MVPbkContactStore @ 132 NONAME
	_ZThn4_N22CNSmlContactsDataStore16StoreUnavailableER17MVPbkContactStorei @ 133 NONAME
	_ZThn4_N22CNSmlContactsDataStore17HandleStoreEventLER17MVPbkContactStore22TVPbkContactStoreEvent @ 134 NONAME
	_ZThn4_N22CNSmlContactsDataStoreD0Ev @ 135 NONAME
	_ZThn4_N22CNSmlContactsDataStoreD1Ev @ 136 NONAME
	_ZThn8_N22CNSmlContactsDataStore32VPbkSingleContactOperationFailedER25MVPbkContactOperationBasei @ 137 NONAME
	_ZThn8_N22CNSmlContactsDataStore34VPbkSingleContactOperationCompleteER25MVPbkContactOperationBaseP17MVPbkStoreContact @ 138 NONAME
	_ZThn8_N22CNSmlContactsDataStoreD0Ev @ 139 NONAME
	_ZThn8_N22CNSmlContactsDataStoreD1Ev @ 140 NONAME

